(lp0
(i__main__
proto
p1
(dp2
S'y'
p3
I-536
sS'x'
p4
I1088
sba(i__main__
proto
p5
(dp6
g3
I-536
sg4
I6144
sba(i__main__
proto
p7
(dp8
g3
I-536
sg4
I6208
sba(i__main__
proto
p9
(dp10
g3
I-536
sg4
I6272
sba(i__main__
proto
p11
(dp12
g3
I-536
sg4
I6336
sba(i__main__
proto
p13
(dp14
g3
I-472
sg4
I1088
sba(i__main__
proto
p15
(dp16
g3
I-472
sg4
I6400
sba(i__main__
proto
p17
(dp18
g3
I-408
sg4
I1088
sba(i__main__
proto
p19
(dp20
g3
I-408
sg4
I1408
sba(i__main__
proto
p21
(dp22
g3
I-408
sg4
I6400
sba(i__main__
proto
p23
(dp24
g3
I-344
sg4
I1088
sba(i__main__
proto
p25
(dp26
g3
I-344
sg4
I1344
sba(i__main__
proto
p27
(dp28
g3
I-344
sg4
I1408
sba(i__main__
proto
p29
(dp30
g3
I-344
sg4
I2560
sba(i__main__
proto
p31
(dp32
g3
I-344
sg4
I2624
sba(i__main__
proto
p33
(dp34
g3
I-344
sg4
I6336
sba(i__main__
proto
p35
(dp36
g3
I-344
sg4
I6400
sba(i__main__
proto
p37
(dp38
g3
I-280
sg4
I1088
sba(i__main__
proto
p39
(dp40
g3
I-280
sg4
I1408
sba(i__main__
proto
p41
(dp42
g3
I-280
sg4
I6400
sba(i__main__
proto
p43
(dp44
g3
I-216
sg4
I1088
sba(i__main__
proto
p45
(dp46
g3
I-216
sg4
I1152
sba(i__main__
proto
p47
(dp48
g3
I-216
sg4
I1408
sba(i__main__
proto
p49
(dp50
g3
I-216
sg4
I2304
sba(i__main__
proto
p51
(dp52
g3
I-216
sg4
I3520
sba(i__main__
proto
p53
(dp54
g3
I-216
sg4
I3584
sba(i__main__
proto
p55
(dp56
g3
I-216
sg4
I3648
sba(i__main__
proto
p57
(dp58
g3
I-216
sg4
I3712
sba(i__main__
proto
p59
(dp60
g3
I-216
sg4
I3776
sba(i__main__
proto
p61
(dp62
g3
I-216
sg4
I6080
sba(i__main__
proto
p63
(dp64
g3
I-216
sg4
I6400
sba(i__main__
proto
p65
(dp66
g3
I-152
sg4
I1088
sba(i__main__
proto
p67
(dp68
g3
I-152
sg4
I1408
sba(i__main__
proto
p69
(dp70
g3
I-152
sg4
I2240
sba(i__main__
proto
p71
(dp72
g3
I-152
sg4
I3520
sba(i__main__
proto
p73
(dp74
g3
I-152
sg4
I6080
sba(i__main__
proto
p75
(dp76
g3
I-152
sg4
I6400
sba(i__main__
proto
p77
(dp78
g3
I-88
sg4
I1088
sba(i__main__
proto
p79
(dp80
g3
I-88
sg4
I1344
sba(i__main__
proto
p81
(dp82
g3
I-88
sg4
I1408
sba(i__main__
proto
p83
(dp84
g3
I-88
sg4
I3520
sba(i__main__
proto
p85
(dp86
g3
I-88
sg4
I3968
sba(i__main__
proto
p87
(dp88
g3
I-88
sg4
I6016
sba(i__main__
proto
p89
(dp90
g3
I-88
sg4
I6080
sba(i__main__
proto
p91
(dp92
g3
I-88
sg4
I6144
sba(i__main__
proto
p93
(dp94
g3
I-88
sg4
I6208
sba(i__main__
proto
p95
(dp96
g3
I-88
sg4
I6272
sba(i__main__
proto
p97
(dp98
g3
I-88
sg4
I6336
sba(i__main__
proto
p99
(dp100
g3
I-88
sg4
I6400
sba(i__main__
proto
p101
(dp102
g3
I-24
sg4
I1088
sba(i__main__
proto
p103
(dp104
g3
I-24
sg4
I1408
sba(i__main__
proto
p105
(dp106
g3
I-24
sg4
I1984
sba(i__main__
proto
p107
(dp108
g3
I-24
sg4
I2048
sba(i__main__
proto
p109
(dp110
g3
I-24
sg4
I3328
sba(i__main__
proto
p111
(dp112
g3
I-24
sg4
I3456
sba(i__main__
proto
p113
(dp114
g3
I-24
sg4
I3520
sba(i__main__
proto
p115
(dp116
g3
I-24
sg4
I4032
sba(i__main__
proto
p117
(dp118
g3
I40
sg4
I1088
sba(i__main__
proto
p119
(dp120
g3
I40
sg4
I1152
sba(i__main__
proto
p121
(dp122
g3
I40
sg4
I1408
sba(i__main__
proto
p123
(dp124
g3
I40
sg4
I1920
sba(i__main__
proto
p125
(dp126
g3
I40
sg4
I1984
sba(i__main__
proto
p127
(dp128
g3
I40
sg4
I3520
sba(i__main__
proto
p129
(dp130
g3
I40
sg4
I3840
sba(i__main__
proto
p131
(dp132
g3
I40
sg4
I5888
sba(i__main__
proto
p133
(dp134
g3
I40
sg4
I5952
sba(i__main__
proto
p135
(dp136
g3
I40
sg4
I6016
sba(i__main__
proto
p137
(dp138
g3
I104
sg4
I576
sba(i__main__
proto
p139
(dp140
g3
I104
sg4
I640
sba(i__main__
proto
p141
(dp142
g3
I104
sg4
I1408
sba(i__main__
proto
p143
(dp144
g3
I104
sg4
I3520
sba(i__main__
proto
p145
(dp146
g3
I104
sg4
I3584
sba(i__main__
proto
p147
(dp148
g3
I104
sg4
I3648
sba(i__main__
proto
p149
(dp150
g3
I104
sg4
I3712
sba(i__main__
proto
p151
(dp152
g3
I104
sg4
I3776
sba(i__main__
proto
p153
(dp154
g3
I104
sg4
I3840
sba(i__main__
proto
p155
(dp156
g3
I168
sg4
I1280
sba(i__main__
proto
p157
(dp158
g3
I168
sg4
I1344
sba(i__main__
proto
p159
(dp160
g3
I168
sg4
I1792
sba(i__main__
proto
p161
(dp162
g3
I168
sg4
I4096
sba(i__main__
proto
p163
(dp164
g3
I168
sg4
I5568
sba(i__main__
proto
p165
(dp166
g3
I168
sg4
I5632
sba(i__main__
proto
p167
(dp168
g3
I168
sg4
I5696
sba(i__main__
proto
p169
(dp170
g3
I232
sg4
I512
sba(i__main__
proto
p171
(dp172
g3
I232
sg4
I1216
sba(i__main__
proto
p173
(dp174
g3
I232
sg4
I1664
sba(i__main__
proto
p175
(dp176
g3
I232
sg4
I4032
sba(i__main__
proto
p177
(dp178
g3
I232
sg4
I4096
sba(i__main__
proto
p179
(dp180
g3
I296
sg4
I1088
sba(i__main__
proto
p181
(dp182
g3
I296
sg4
I1152
sba(i__main__
proto
p183
(dp184
g3
I296
sg4
I1216
sba(i__main__
proto
p185
(dp186
g3
I296
sg4
I1280
sba(i__main__
proto
p187
(dp188
g3
I296
sg4
I1344
sba(i__main__
proto
p189
(dp190
g3
I296
sg4
I3968
sba(i__main__
proto
p191
(dp192
g3
I296
sg4
I4032
sba(i__main__
proto
p193
(dp194
g3
I296
sg4
I4096
sba(i__main__
proto
p195
(dp196
g3
I488
sg4
I3200
sba.