(lp0
(i__main__
proto
p1
(dp2
S'y'
p3
I-536
sS'x'
p4
I0
sba(i__main__
proto
p5
(dp6
g3
I-536
sg4
I7936
sba(i__main__
proto
p7
(dp8
g3
I-472
sg4
I0
sba(i__main__
proto
p9
(dp10
g3
I-472
sg4
I7936
sba(i__main__
proto
p11
(dp12
g3
I-408
sg4
I0
sba(i__main__
proto
p13
(dp14
g3
I-408
sg4
I7936
sba(i__main__
proto
p15
(dp16
g3
I-344
sg4
I0
sba(i__main__
proto
p17
(dp18
g3
I-344
sg4
I7936
sba(i__main__
proto
p19
(dp20
g3
I-280
sg4
I0
sba(i__main__
proto
p21
(dp22
g3
I-280
sg4
I7936
sba(i__main__
proto
p23
(dp24
g3
I-216
sg4
I0
sba(i__main__
proto
p25
(dp26
g3
I-216
sg4
I7936
sba(i__main__
proto
p27
(dp28
g3
I-152
sg4
I0
sba(i__main__
proto
p29
(dp30
g3
I-152
sg4
I7936
sba(i__main__
proto
p31
(dp32
g3
I-88
sg4
I0
sba(i__main__
proto
p33
(dp34
g3
I-88
sg4
I7936
sba(i__main__
proto
p35
(dp36
g3
I-24
sg4
I0
sba(i__main__
proto
p37
(dp38
g3
I-24
sg4
I7936
sba(i__main__
proto
p39
(dp40
g3
I40
sg4
I0
sba(i__main__
proto
p41
(dp42
g3
I40
sg4
I7936
sba(i__main__
proto
p43
(dp44
g3
I104
sg4
I0
sba(i__main__
proto
p45
(dp46
g3
I104
sg4
I7936
sba(i__main__
proto
p47
(dp48
g3
I168
sg4
I0
sba(i__main__
proto
p49
(dp50
g3
I168
sg4
I7936
sba(i__main__
proto
p51
(dp52
g3
I232
sg4
I0
sba(i__main__
proto
p53
(dp54
g3
I232
sg4
I7936
sba(i__main__
proto
p55
(dp56
g3
I296
sg4
I0
sba(i__main__
proto
p57
(dp58
g3
I296
sg4
I7936
sba(i__main__
proto
p59
(dp60
g3
I360
sg4
I0
sba(i__main__
proto
p61
(dp62
g3
I360
sg4
I64
sba(i__main__
proto
p63
(dp64
g3
I360
sg4
I128
sba(i__main__
proto
p65
(dp66
g3
I360
sg4
I192
sba(i__main__
proto
p67
(dp68
g3
I360
sg4
I256
sba(i__main__
proto
p69
(dp70
g3
I360
sg4
I320
sba(i__main__
proto
p71
(dp72
g3
I360
sg4
I384
sba(i__main__
proto
p73
(dp74
g3
I360
sg4
I448
sba(i__main__
proto
p75
(dp76
g3
I360
sg4
I512
sba(i__main__
proto
p77
(dp78
g3
I360
sg4
I704
sba(i__main__
proto
p79
(dp80
g3
I360
sg4
I768
sba(i__main__
proto
p81
(dp82
g3
I360
sg4
I832
sba(i__main__
proto
p83
(dp84
g3
I360
sg4
I896
sba(i__main__
proto
p85
(dp86
g3
I360
sg4
I960
sba(i__main__
proto
p87
(dp88
g3
I360
sg4
I1024
sba(i__main__
proto
p89
(dp90
g3
I360
sg4
I1088
sba(i__main__
proto
p91
(dp92
g3
I360
sg4
I1152
sba(i__main__
proto
p93
(dp94
g3
I360
sg4
I1216
sba(i__main__
proto
p95
(dp96
g3
I360
sg4
I1280
sba(i__main__
proto
p97
(dp98
g3
I360
sg4
I1344
sba(i__main__
proto
p99
(dp100
g3
I360
sg4
I1408
sba(i__main__
proto
p101
(dp102
g3
I360
sg4
I1472
sba(i__main__
proto
p103
(dp104
g3
I360
sg4
I1536
sba(i__main__
proto
p105
(dp106
g3
I360
sg4
I1728
sba(i__main__
proto
p107
(dp108
g3
I360
sg4
I1792
sba(i__main__
proto
p109
(dp110
g3
I360
sg4
I1856
sba(i__main__
proto
p111
(dp112
g3
I360
sg4
I1920
sba(i__main__
proto
p113
(dp114
g3
I360
sg4
I1984
sba(i__main__
proto
p115
(dp116
g3
I360
sg4
I2048
sba(i__main__
proto
p117
(dp118
g3
I360
sg4
I2112
sba(i__main__
proto
p119
(dp120
g3
I360
sg4
I2176
sba(i__main__
proto
p121
(dp122
g3
I360
sg4
I2240
sba(i__main__
proto
p123
(dp124
g3
I360
sg4
I2304
sba(i__main__
proto
p125
(dp126
g3
I360
sg4
I2368
sba(i__main__
proto
p127
(dp128
g3
I360
sg4
I2624
sba(i__main__
proto
p129
(dp130
g3
I360
sg4
I2688
sba(i__main__
proto
p131
(dp132
g3
I360
sg4
I2752
sba(i__main__
proto
p133
(dp134
g3
I360
sg4
I2816
sba(i__main__
proto
p135
(dp136
g3
I360
sg4
I2880
sba(i__main__
proto
p137
(dp138
g3
I360
sg4
I2944
sba(i__main__
proto
p139
(dp140
g3
I360
sg4
I3264
sba(i__main__
proto
p141
(dp142
g3
I360
sg4
I3328
sba(i__main__
proto
p143
(dp144
g3
I360
sg4
I3392
sba(i__main__
proto
p145
(dp146
g3
I360
sg4
I3456
sba(i__main__
proto
p147
(dp148
g3
I360
sg4
I3520
sba(i__main__
proto
p149
(dp150
g3
I360
sg4
I3584
sba(i__main__
proto
p151
(dp152
g3
I360
sg4
I3648
sba(i__main__
proto
p153
(dp154
g3
I360
sg4
I3712
sba(i__main__
proto
p155
(dp156
g3
I360
sg4
I3776
sba(i__main__
proto
p157
(dp158
g3
I360
sg4
I3840
sba(i__main__
proto
p159
(dp160
g3
I360
sg4
I3904
sba(i__main__
proto
p161
(dp162
g3
I360
sg4
I3968
sba(i__main__
proto
p163
(dp164
g3
I360
sg4
I4032
sba(i__main__
proto
p165
(dp166
g3
I360
sg4
I4096
sba(i__main__
proto
p167
(dp168
g3
I360
sg4
I4160
sba(i__main__
proto
p169
(dp170
g3
I360
sg4
I4224
sba(i__main__
proto
p171
(dp172
g3
I360
sg4
I4480
sba(i__main__
proto
p173
(dp174
g3
I360
sg4
I4736
sba(i__main__
proto
p175
(dp176
g3
I360
sg4
I4928
sba(i__main__
proto
p177
(dp178
g3
I360
sg4
I5184
sba(i__main__
proto
p179
(dp180
g3
I360
sg4
I5248
sba(i__main__
proto
p181
(dp182
g3
I360
sg4
I5312
sba(i__main__
proto
p183
(dp184
g3
I360
sg4
I5376
sba(i__main__
proto
p185
(dp186
g3
I360
sg4
I5440
sba(i__main__
proto
p187
(dp188
g3
I360
sg4
I5504
sba(i__main__
proto
p189
(dp190
g3
I360
sg4
I5568
sba(i__main__
proto
p191
(dp192
g3
I360
sg4
I5888
sba(i__main__
proto
p193
(dp194
g3
I360
sg4
I6208
sba(i__main__
proto
p195
(dp196
g3
I360
sg4
I6272
sba(i__main__
proto
p197
(dp198
g3
I360
sg4
I6336
sba(i__main__
proto
p199
(dp200
g3
I360
sg4
I6400
sba(i__main__
proto
p201
(dp202
g3
I360
sg4
I6464
sba(i__main__
proto
p203
(dp204
g3
I360
sg4
I6528
sba(i__main__
proto
p205
(dp206
g3
I360
sg4
I6592
sba(i__main__
proto
p207
(dp208
g3
I360
sg4
I6656
sba(i__main__
proto
p209
(dp210
g3
I360
sg4
I6720
sba(i__main__
proto
p211
(dp212
g3
I360
sg4
I6784
sba(i__main__
proto
p213
(dp214
g3
I360
sg4
I7232
sba(i__main__
proto
p215
(dp216
g3
I360
sg4
I7296
sba(i__main__
proto
p217
(dp218
g3
I360
sg4
I7360
sba(i__main__
proto
p219
(dp220
g3
I360
sg4
I7424
sba(i__main__
proto
p221
(dp222
g3
I360
sg4
I7488
sba(i__main__
proto
p223
(dp224
g3
I360
sg4
I7552
sba(i__main__
proto
p225
(dp226
g3
I360
sg4
I7616
sba(i__main__
proto
p227
(dp228
g3
I360
sg4
I7680
sba(i__main__
proto
p229
(dp230
g3
I360
sg4
I7744
sba(i__main__
proto
p231
(dp232
g3
I360
sg4
I7808
sba(i__main__
proto
p233
(dp234
g3
I360
sg4
I7872
sba(i__main__
proto
p235
(dp236
g3
I360
sg4
I7936
sba(i__main__
proto
p237
(dp238
g3
I424
sg4
I0
sba(i__main__
proto
p239
(dp240
g3
I424
sg4
I64
sba(i__main__
proto
p241
(dp242
g3
I424
sg4
I128
sba(i__main__
proto
p243
(dp244
g3
I424
sg4
I192
sba(i__main__
proto
p245
(dp246
g3
I424
sg4
I256
sba(i__main__
proto
p247
(dp248
g3
I424
sg4
I320
sba(i__main__
proto
p249
(dp250
g3
I424
sg4
I384
sba(i__main__
proto
p251
(dp252
g3
I424
sg4
I448
sba(i__main__
proto
p253
(dp254
g3
I424
sg4
I512
sba(i__main__
proto
p255
(dp256
g3
I424
sg4
I704
sba(i__main__
proto
p257
(dp258
g3
I424
sg4
I768
sba(i__main__
proto
p259
(dp260
g3
I424
sg4
I832
sba(i__main__
proto
p261
(dp262
g3
I424
sg4
I896
sba(i__main__
proto
p263
(dp264
g3
I424
sg4
I960
sba(i__main__
proto
p265
(dp266
g3
I424
sg4
I1024
sba(i__main__
proto
p267
(dp268
g3
I424
sg4
I1088
sba(i__main__
proto
p269
(dp270
g3
I424
sg4
I1152
sba(i__main__
proto
p271
(dp272
g3
I424
sg4
I1216
sba(i__main__
proto
p273
(dp274
g3
I424
sg4
I1280
sba(i__main__
proto
p275
(dp276
g3
I424
sg4
I1344
sba(i__main__
proto
p277
(dp278
g3
I424
sg4
I1408
sba(i__main__
proto
p279
(dp280
g3
I424
sg4
I1472
sba(i__main__
proto
p281
(dp282
g3
I424
sg4
I1536
sba(i__main__
proto
p283
(dp284
g3
I424
sg4
I1728
sba(i__main__
proto
p285
(dp286
g3
I424
sg4
I1792
sba(i__main__
proto
p287
(dp288
g3
I424
sg4
I1856
sba(i__main__
proto
p289
(dp290
g3
I424
sg4
I1920
sba(i__main__
proto
p291
(dp292
g3
I424
sg4
I1984
sba(i__main__
proto
p293
(dp294
g3
I424
sg4
I2048
sba(i__main__
proto
p295
(dp296
g3
I424
sg4
I2112
sba(i__main__
proto
p297
(dp298
g3
I424
sg4
I2176
sba(i__main__
proto
p299
(dp300
g3
I424
sg4
I2240
sba(i__main__
proto
p301
(dp302
g3
I424
sg4
I2304
sba(i__main__
proto
p303
(dp304
g3
I424
sg4
I2368
sba(i__main__
proto
p305
(dp306
g3
I424
sg4
I2624
sba(i__main__
proto
p307
(dp308
g3
I424
sg4
I2688
sba(i__main__
proto
p309
(dp310
g3
I424
sg4
I2752
sba(i__main__
proto
p311
(dp312
g3
I424
sg4
I2816
sba(i__main__
proto
p313
(dp314
g3
I424
sg4
I2880
sba(i__main__
proto
p315
(dp316
g3
I424
sg4
I2944
sba(i__main__
proto
p317
(dp318
g3
I424
sg4
I3264
sba(i__main__
proto
p319
(dp320
g3
I424
sg4
I3328
sba(i__main__
proto
p321
(dp322
g3
I424
sg4
I3392
sba(i__main__
proto
p323
(dp324
g3
I424
sg4
I3456
sba(i__main__
proto
p325
(dp326
g3
I424
sg4
I3520
sba(i__main__
proto
p327
(dp328
g3
I424
sg4
I3584
sba(i__main__
proto
p329
(dp330
g3
I424
sg4
I3648
sba(i__main__
proto
p331
(dp332
g3
I424
sg4
I3712
sba(i__main__
proto
p333
(dp334
g3
I424
sg4
I3776
sba(i__main__
proto
p335
(dp336
g3
I424
sg4
I3840
sba(i__main__
proto
p337
(dp338
g3
I424
sg4
I3904
sba(i__main__
proto
p339
(dp340
g3
I424
sg4
I3968
sba(i__main__
proto
p341
(dp342
g3
I424
sg4
I4032
sba(i__main__
proto
p343
(dp344
g3
I424
sg4
I4096
sba(i__main__
proto
p345
(dp346
g3
I424
sg4
I4160
sba(i__main__
proto
p347
(dp348
g3
I424
sg4
I4224
sba(i__main__
proto
p349
(dp350
g3
I424
sg4
I4480
sba(i__main__
proto
p351
(dp352
g3
I424
sg4
I4736
sba(i__main__
proto
p353
(dp354
g3
I424
sg4
I4928
sba(i__main__
proto
p355
(dp356
g3
I424
sg4
I5184
sba(i__main__
proto
p357
(dp358
g3
I424
sg4
I5248
sba(i__main__
proto
p359
(dp360
g3
I424
sg4
I5312
sba(i__main__
proto
p361
(dp362
g3
I424
sg4
I5376
sba(i__main__
proto
p363
(dp364
g3
I424
sg4
I5440
sba(i__main__
proto
p365
(dp366
g3
I424
sg4
I5504
sba(i__main__
proto
p367
(dp368
g3
I424
sg4
I5568
sba(i__main__
proto
p369
(dp370
g3
I424
sg4
I5888
sba(i__main__
proto
p371
(dp372
g3
I424
sg4
I6208
sba(i__main__
proto
p373
(dp374
g3
I424
sg4
I6272
sba(i__main__
proto
p375
(dp376
g3
I424
sg4
I6336
sba(i__main__
proto
p377
(dp378
g3
I424
sg4
I6400
sba(i__main__
proto
p379
(dp380
g3
I424
sg4
I6464
sba(i__main__
proto
p381
(dp382
g3
I424
sg4
I6528
sba(i__main__
proto
p383
(dp384
g3
I424
sg4
I6592
sba(i__main__
proto
p385
(dp386
g3
I424
sg4
I6656
sba(i__main__
proto
p387
(dp388
g3
I424
sg4
I6720
sba(i__main__
proto
p389
(dp390
g3
I424
sg4
I6784
sba(i__main__
proto
p391
(dp392
g3
I424
sg4
I7232
sba(i__main__
proto
p393
(dp394
g3
I424
sg4
I7296
sba(i__main__
proto
p395
(dp396
g3
I424
sg4
I7360
sba(i__main__
proto
p397
(dp398
g3
I424
sg4
I7424
sba(i__main__
proto
p399
(dp400
g3
I424
sg4
I7488
sba(i__main__
proto
p401
(dp402
g3
I424
sg4
I7552
sba(i__main__
proto
p403
(dp404
g3
I424
sg4
I7616
sba(i__main__
proto
p405
(dp406
g3
I424
sg4
I7680
sba(i__main__
proto
p407
(dp408
g3
I424
sg4
I7744
sba(i__main__
proto
p409
(dp410
g3
I424
sg4
I7808
sba(i__main__
proto
p411
(dp412
g3
I424
sg4
I7872
sba(i__main__
proto
p413
(dp414
g3
I424
sg4
I7936
sba(i__main__
proto
p415
(dp416
g3
I488
sg4
I0
sba(i__main__
proto
p417
(dp418
g3
I488
sg4
I64
sba(i__main__
proto
p419
(dp420
g3
I488
sg4
I128
sba(i__main__
proto
p421
(dp422
g3
I488
sg4
I192
sba(i__main__
proto
p423
(dp424
g3
I488
sg4
I256
sba(i__main__
proto
p425
(dp426
g3
I488
sg4
I320
sba(i__main__
proto
p427
(dp428
g3
I488
sg4
I384
sba(i__main__
proto
p429
(dp430
g3
I488
sg4
I448
sba(i__main__
proto
p431
(dp432
g3
I488
sg4
I512
sba(i__main__
proto
p433
(dp434
g3
I488
sg4
I704
sba(i__main__
proto
p435
(dp436
g3
I488
sg4
I768
sba(i__main__
proto
p437
(dp438
g3
I488
sg4
I832
sba(i__main__
proto
p439
(dp440
g3
I488
sg4
I896
sba(i__main__
proto
p441
(dp442
g3
I488
sg4
I960
sba(i__main__
proto
p443
(dp444
g3
I488
sg4
I1024
sba(i__main__
proto
p445
(dp446
g3
I488
sg4
I1088
sba(i__main__
proto
p447
(dp448
g3
I488
sg4
I1152
sba(i__main__
proto
p449
(dp450
g3
I488
sg4
I1216
sba(i__main__
proto
p451
(dp452
g3
I488
sg4
I1280
sba(i__main__
proto
p453
(dp454
g3
I488
sg4
I1344
sba(i__main__
proto
p455
(dp456
g3
I488
sg4
I1408
sba(i__main__
proto
p457
(dp458
g3
I488
sg4
I1472
sba(i__main__
proto
p459
(dp460
g3
I488
sg4
I1536
sba(i__main__
proto
p461
(dp462
g3
I488
sg4
I1728
sba(i__main__
proto
p463
(dp464
g3
I488
sg4
I1792
sba(i__main__
proto
p465
(dp466
g3
I488
sg4
I1856
sba(i__main__
proto
p467
(dp468
g3
I488
sg4
I1920
sba(i__main__
proto
p469
(dp470
g3
I488
sg4
I1984
sba(i__main__
proto
p471
(dp472
g3
I488
sg4
I2048
sba(i__main__
proto
p473
(dp474
g3
I488
sg4
I2112
sba(i__main__
proto
p475
(dp476
g3
I488
sg4
I2176
sba(i__main__
proto
p477
(dp478
g3
I488
sg4
I2240
sba(i__main__
proto
p479
(dp480
g3
I488
sg4
I2304
sba(i__main__
proto
p481
(dp482
g3
I488
sg4
I2368
sba(i__main__
proto
p483
(dp484
g3
I488
sg4
I2624
sba(i__main__
proto
p485
(dp486
g3
I488
sg4
I2688
sba(i__main__
proto
p487
(dp488
g3
I488
sg4
I2752
sba(i__main__
proto
p489
(dp490
g3
I488
sg4
I2816
sba(i__main__
proto
p491
(dp492
g3
I488
sg4
I2880
sba(i__main__
proto
p493
(dp494
g3
I488
sg4
I2944
sba(i__main__
proto
p495
(dp496
g3
I488
sg4
I3264
sba(i__main__
proto
p497
(dp498
g3
I488
sg4
I3328
sba(i__main__
proto
p499
(dp500
g3
I488
sg4
I3392
sba(i__main__
proto
p501
(dp502
g3
I488
sg4
I3456
sba(i__main__
proto
p503
(dp504
g3
I488
sg4
I3520
sba(i__main__
proto
p505
(dp506
g3
I488
sg4
I3584
sba(i__main__
proto
p507
(dp508
g3
I488
sg4
I3648
sba(i__main__
proto
p509
(dp510
g3
I488
sg4
I3712
sba(i__main__
proto
p511
(dp512
g3
I488
sg4
I3776
sba(i__main__
proto
p513
(dp514
g3
I488
sg4
I3840
sba(i__main__
proto
p515
(dp516
g3
I488
sg4
I3904
sba(i__main__
proto
p517
(dp518
g3
I488
sg4
I3968
sba(i__main__
proto
p519
(dp520
g3
I488
sg4
I4032
sba(i__main__
proto
p521
(dp522
g3
I488
sg4
I4096
sba(i__main__
proto
p523
(dp524
g3
I488
sg4
I4160
sba(i__main__
proto
p525
(dp526
g3
I488
sg4
I4224
sba(i__main__
proto
p527
(dp528
g3
I488
sg4
I4480
sba(i__main__
proto
p529
(dp530
g3
I488
sg4
I4736
sba(i__main__
proto
p531
(dp532
g3
I488
sg4
I4928
sba(i__main__
proto
p533
(dp534
g3
I488
sg4
I5184
sba(i__main__
proto
p535
(dp536
g3
I488
sg4
I5248
sba(i__main__
proto
p537
(dp538
g3
I488
sg4
I5312
sba(i__main__
proto
p539
(dp540
g3
I488
sg4
I5376
sba(i__main__
proto
p541
(dp542
g3
I488
sg4
I5440
sba(i__main__
proto
p543
(dp544
g3
I488
sg4
I5504
sba(i__main__
proto
p545
(dp546
g3
I488
sg4
I5568
sba(i__main__
proto
p547
(dp548
g3
I488
sg4
I5888
sba(i__main__
proto
p549
(dp550
g3
I488
sg4
I6208
sba(i__main__
proto
p551
(dp552
g3
I488
sg4
I6272
sba(i__main__
proto
p553
(dp554
g3
I488
sg4
I6336
sba(i__main__
proto
p555
(dp556
g3
I488
sg4
I6400
sba(i__main__
proto
p557
(dp558
g3
I488
sg4
I6464
sba(i__main__
proto
p559
(dp560
g3
I488
sg4
I6528
sba(i__main__
proto
p561
(dp562
g3
I488
sg4
I6592
sba(i__main__
proto
p563
(dp564
g3
I488
sg4
I6656
sba(i__main__
proto
p565
(dp566
g3
I488
sg4
I6720
sba(i__main__
proto
p567
(dp568
g3
I488
sg4
I6784
sba(i__main__
proto
p569
(dp570
g3
I488
sg4
I7232
sba(i__main__
proto
p571
(dp572
g3
I488
sg4
I7296
sba(i__main__
proto
p573
(dp574
g3
I488
sg4
I7360
sba(i__main__
proto
p575
(dp576
g3
I488
sg4
I7424
sba(i__main__
proto
p577
(dp578
g3
I488
sg4
I7488
sba(i__main__
proto
p579
(dp580
g3
I488
sg4
I7552
sba(i__main__
proto
p581
(dp582
g3
I488
sg4
I7616
sba(i__main__
proto
p583
(dp584
g3
I488
sg4
I7680
sba(i__main__
proto
p585
(dp586
g3
I488
sg4
I7744
sba(i__main__
proto
p587
(dp588
g3
I488
sg4
I7808
sba(i__main__
proto
p589
(dp590
g3
I488
sg4
I7872
sba(i__main__
proto
p591
(dp592
g3
I488
sg4
I7936
sba(i__main__
proto
p593
(dp594
g3
I552
sg4
I0
sba(i__main__
proto
p595
(dp596
g3
I552
sg4
I64
sba(i__main__
proto
p597
(dp598
g3
I552
sg4
I128
sba(i__main__
proto
p599
(dp600
g3
I552
sg4
I192
sba(i__main__
proto
p601
(dp602
g3
I552
sg4
I256
sba(i__main__
proto
p603
(dp604
g3
I552
sg4
I320
sba(i__main__
proto
p605
(dp606
g3
I552
sg4
I384
sba(i__main__
proto
p607
(dp608
g3
I552
sg4
I448
sba(i__main__
proto
p609
(dp610
g3
I552
sg4
I512
sba(i__main__
proto
p611
(dp612
g3
I552
sg4
I704
sba(i__main__
proto
p613
(dp614
g3
I552
sg4
I768
sba(i__main__
proto
p615
(dp616
g3
I552
sg4
I832
sba(i__main__
proto
p617
(dp618
g3
I552
sg4
I896
sba(i__main__
proto
p619
(dp620
g3
I552
sg4
I960
sba(i__main__
proto
p621
(dp622
g3
I552
sg4
I1024
sba(i__main__
proto
p623
(dp624
g3
I552
sg4
I1088
sba(i__main__
proto
p625
(dp626
g3
I552
sg4
I1152
sba(i__main__
proto
p627
(dp628
g3
I552
sg4
I1216
sba(i__main__
proto
p629
(dp630
g3
I552
sg4
I1280
sba(i__main__
proto
p631
(dp632
g3
I552
sg4
I1344
sba(i__main__
proto
p633
(dp634
g3
I552
sg4
I1408
sba(i__main__
proto
p635
(dp636
g3
I552
sg4
I1472
sba(i__main__
proto
p637
(dp638
g3
I552
sg4
I1536
sba(i__main__
proto
p639
(dp640
g3
I552
sg4
I1728
sba(i__main__
proto
p641
(dp642
g3
I552
sg4
I1792
sba(i__main__
proto
p643
(dp644
g3
I552
sg4
I1856
sba(i__main__
proto
p645
(dp646
g3
I552
sg4
I1920
sba(i__main__
proto
p647
(dp648
g3
I552
sg4
I1984
sba(i__main__
proto
p649
(dp650
g3
I552
sg4
I2048
sba(i__main__
proto
p651
(dp652
g3
I552
sg4
I2112
sba(i__main__
proto
p653
(dp654
g3
I552
sg4
I2176
sba(i__main__
proto
p655
(dp656
g3
I552
sg4
I2240
sba(i__main__
proto
p657
(dp658
g3
I552
sg4
I2304
sba(i__main__
proto
p659
(dp660
g3
I552
sg4
I2368
sba(i__main__
proto
p661
(dp662
g3
I552
sg4
I2624
sba(i__main__
proto
p663
(dp664
g3
I552
sg4
I2688
sba(i__main__
proto
p665
(dp666
g3
I552
sg4
I2752
sba(i__main__
proto
p667
(dp668
g3
I552
sg4
I2816
sba(i__main__
proto
p669
(dp670
g3
I552
sg4
I2880
sba(i__main__
proto
p671
(dp672
g3
I552
sg4
I2944
sba(i__main__
proto
p673
(dp674
g3
I552
sg4
I3264
sba(i__main__
proto
p675
(dp676
g3
I552
sg4
I3328
sba(i__main__
proto
p677
(dp678
g3
I552
sg4
I3392
sba(i__main__
proto
p679
(dp680
g3
I552
sg4
I3456
sba(i__main__
proto
p681
(dp682
g3
I552
sg4
I3520
sba(i__main__
proto
p683
(dp684
g3
I552
sg4
I3584
sba(i__main__
proto
p685
(dp686
g3
I552
sg4
I3648
sba(i__main__
proto
p687
(dp688
g3
I552
sg4
I3712
sba(i__main__
proto
p689
(dp690
g3
I552
sg4
I3776
sba(i__main__
proto
p691
(dp692
g3
I552
sg4
I3840
sba(i__main__
proto
p693
(dp694
g3
I552
sg4
I3904
sba(i__main__
proto
p695
(dp696
g3
I552
sg4
I3968
sba(i__main__
proto
p697
(dp698
g3
I552
sg4
I4032
sba(i__main__
proto
p699
(dp700
g3
I552
sg4
I4096
sba(i__main__
proto
p701
(dp702
g3
I552
sg4
I4160
sba(i__main__
proto
p703
(dp704
g3
I552
sg4
I4224
sba(i__main__
proto
p705
(dp706
g3
I552
sg4
I4480
sba(i__main__
proto
p707
(dp708
g3
I552
sg4
I4736
sba(i__main__
proto
p709
(dp710
g3
I552
sg4
I4928
sba(i__main__
proto
p711
(dp712
g3
I552
sg4
I5184
sba(i__main__
proto
p713
(dp714
g3
I552
sg4
I5248
sba(i__main__
proto
p715
(dp716
g3
I552
sg4
I5312
sba(i__main__
proto
p717
(dp718
g3
I552
sg4
I5376
sba(i__main__
proto
p719
(dp720
g3
I552
sg4
I5440
sba(i__main__
proto
p721
(dp722
g3
I552
sg4
I5504
sba(i__main__
proto
p723
(dp724
g3
I552
sg4
I5568
sba(i__main__
proto
p725
(dp726
g3
I552
sg4
I5888
sba(i__main__
proto
p727
(dp728
g3
I552
sg4
I6208
sba(i__main__
proto
p729
(dp730
g3
I552
sg4
I6272
sba(i__main__
proto
p731
(dp732
g3
I552
sg4
I6336
sba(i__main__
proto
p733
(dp734
g3
I552
sg4
I6400
sba(i__main__
proto
p735
(dp736
g3
I552
sg4
I6464
sba(i__main__
proto
p737
(dp738
g3
I552
sg4
I6528
sba(i__main__
proto
p739
(dp740
g3
I552
sg4
I6592
sba(i__main__
proto
p741
(dp742
g3
I552
sg4
I6656
sba(i__main__
proto
p743
(dp744
g3
I552
sg4
I6720
sba(i__main__
proto
p745
(dp746
g3
I552
sg4
I6784
sba(i__main__
proto
p747
(dp748
g3
I552
sg4
I7232
sba(i__main__
proto
p749
(dp750
g3
I552
sg4
I7296
sba(i__main__
proto
p751
(dp752
g3
I552
sg4
I7360
sba(i__main__
proto
p753
(dp754
g3
I552
sg4
I7424
sba(i__main__
proto
p755
(dp756
g3
I552
sg4
I7488
sba(i__main__
proto
p757
(dp758
g3
I552
sg4
I7552
sba(i__main__
proto
p759
(dp760
g3
I552
sg4
I7616
sba(i__main__
proto
p761
(dp762
g3
I552
sg4
I7680
sba(i__main__
proto
p763
(dp764
g3
I552
sg4
I7744
sba(i__main__
proto
p765
(dp766
g3
I552
sg4
I7808
sba(i__main__
proto
p767
(dp768
g3
I552
sg4
I7872
sba(i__main__
proto
p769
(dp770
g3
I552
sg4
I7936
sba.