(lp0
(i__main__
proto
p1
(dp2
S'y'
p3
I-88
sS'x'
p4
I7744
sba(i__main__
proto
p5
(dp6
g3
I-24
sg4
I7680
sba(i__main__
proto
p7
(dp8
g3
I-24
sg4
I7744
sba(i__main__
proto
p9
(dp10
g3
I40
sg4
I192
sba(i__main__
proto
p11
(dp12
g3
I40
sg4
I256
sba(i__main__
proto
p13
(dp14
g3
I40
sg4
I320
sba(i__main__
proto
p15
(dp16
g3
I40
sg4
I7616
sba(i__main__
proto
p17
(dp18
g3
I40
sg4
I7680
sba(i__main__
proto
p19
(dp20
g3
I40
sg4
I7744
sba(i__main__
proto
p21
(dp22
g3
I104
sg4
I7552
sba(i__main__
proto
p23
(dp24
g3
I104
sg4
I7616
sba(i__main__
proto
p25
(dp26
g3
I104
sg4
I7680
sba(i__main__
proto
p27
(dp28
g3
I104
sg4
I7744
sba(i__main__
proto
p29
(dp30
g3
I168
sg4
I4928
sba(i__main__
proto
p31
(dp32
g3
I168
sg4
I6592
sba(i__main__
proto
p33
(dp34
g3
I168
sg4
I7488
sba(i__main__
proto
p35
(dp36
g3
I168
sg4
I7552
sba(i__main__
proto
p37
(dp38
g3
I168
sg4
I7616
sba(i__main__
proto
p39
(dp40
g3
I168
sg4
I7680
sba(i__main__
proto
p41
(dp42
g3
I168
sg4
I7744
sba(i__main__
proto
p43
(dp44
g3
I232
sg4
I64
sba(i__main__
proto
p45
(dp46
g3
I232
sg4
I4736
sba(i__main__
proto
p47
(dp48
g3
I232
sg4
I4928
sba(i__main__
proto
p49
(dp50
g3
I232
sg4
I6528
sba(i__main__
proto
p51
(dp52
g3
I232
sg4
I6592
sba(i__main__
proto
p53
(dp54
g3
I232
sg4
I6656
sba(i__main__
proto
p55
(dp56
g3
I232
sg4
I7424
sba(i__main__
proto
p57
(dp58
g3
I232
sg4
I7488
sba(i__main__
proto
p59
(dp60
g3
I232
sg4
I7552
sba(i__main__
proto
p61
(dp62
g3
I232
sg4
I7616
sba(i__main__
proto
p63
(dp64
g3
I232
sg4
I7680
sba(i__main__
proto
p65
(dp66
g3
I232
sg4
I7744
sba(i__main__
proto
p67
(dp68
g3
I296
sg4
I64
sba(i__main__
proto
p69
(dp70
g3
I296
sg4
I2624
sba(i__main__
proto
p71
(dp72
g3
I296
sg4
I2688
sba(i__main__
proto
p73
(dp74
g3
I296
sg4
I2752
sba(i__main__
proto
p75
(dp76
g3
I296
sg4
I2816
sba(i__main__
proto
p77
(dp78
g3
I296
sg4
I2880
sba(i__main__
proto
p79
(dp80
g3
I296
sg4
I2944
sba(i__main__
proto
p81
(dp82
g3
I296
sg4
I4480
sba(i__main__
proto
p83
(dp84
g3
I296
sg4
I4736
sba(i__main__
proto
p85
(dp86
g3
I296
sg4
I4928
sba(i__main__
proto
p87
(dp88
g3
I296
sg4
I6464
sba(i__main__
proto
p89
(dp90
g3
I296
sg4
I6528
sba(i__main__
proto
p91
(dp92
g3
I296
sg4
I6592
sba(i__main__
proto
p93
(dp94
g3
I296
sg4
I6656
sba(i__main__
proto
p95
(dp96
g3
I296
sg4
I6720
sba(i__main__
proto
p97
(dp98
g3
I296
sg4
I7360
sba(i__main__
proto
p99
(dp100
g3
I296
sg4
I7424
sba(i__main__
proto
p101
(dp102
g3
I296
sg4
I7488
sba(i__main__
proto
p103
(dp104
g3
I296
sg4
I7552
sba(i__main__
proto
p105
(dp106
g3
I296
sg4
I7616
sba(i__main__
proto
p107
(dp108
g3
I296
sg4
I7680
sba(i__main__
proto
p109
(dp110
g3
I296
sg4
I7744
sba.